target datalayout = "e-m:e-p270:32:32-p271:32:32-p272:64:64-i64:64-i128:128-f80:128-n8:16:32:64-S128"
target triple = "x86_64-pc-linux-gnu"

; Function Attrs: null_pointer_is_valid sspstrong uwtable
define ptr @wmem_strsplit(ptr noundef %0, ptr noundef %1, ptr noundef %2, i32 noundef %3) #0 {
  %5 = alloca ptr, align 8
  %6 = alloca ptr, align 8
  %7 = alloca ptr, align 8
  %8 = alloca ptr, align 8
  %9 = alloca i32, align 4
  %10 = alloca ptr, align 8
  %11 = alloca ptr, align 8
  %12 = alloca i32, align 4
  %13 = alloca i32, align 4
  %14 = alloca i32, align 4
  %15 = alloca ptr, align 8
  %16 = alloca i32, align 4
  store ptr %0, ptr %6, align 8
  store ptr %1, ptr %7, align 8
  store ptr %2, ptr %8, align 8
  store i32 %3, ptr %9, align 4
  call void @llvm.lifetime.start.p0(i64 8, ptr %10) #15
  call void @llvm.lifetime.start.p0(i64 8, ptr %11) #15
  call void @llvm.lifetime.start.p0(i64 4, ptr %12) #15
  call void @llvm.lifetime.start.p0(i64 4, ptr %13) #15
  call void @llvm.lifetime.start.p0(i64 4, ptr %14) #15
  call void @llvm.lifetime.start.p0(i64 8, ptr %15) #15
  %17 = load ptr, ptr %7, align 8
  %18 = icmp ne ptr %17, null
  br i1 %18, label %19, label %27

19:                                               ; preds = %4
  %20 = load ptr, ptr %8, align 8
  %21 = icmp ne ptr %20, null
  br i1 %21, label %22, label %27

22:                                               ; preds = %19
  %23 = load ptr, ptr %8, align 8
  %24 = getelementptr i8, ptr %23, i64 0
  %25 = load i8, ptr %24, align 1
  %26 = icmp ne i8 %25, 0
  br i1 %26, label %28, label %27

27:                                               ; preds = %22, %19, %4
  store ptr null, ptr %5, align 8
  store i32 1, ptr %16, align 4
  br label %133

28:                                               ; preds = %22
  %29 = load ptr, ptr %7, align 8
  %30 = getelementptr i8, ptr %29, i64 0
  %31 = load i8, ptr %30, align 1
  %32 = icmp ne i8 %31, 0
  br i1 %32, label %37, label %33

33:                                               ; preds = %28
  %34 = load ptr, ptr %6, align 8
  %35 = call noalias ptr @wmem_alloc0(ptr noundef %34, i64 noundef 8) #17
  store ptr %35, ptr %15, align 8
  %36 = load ptr, ptr %15, align 8
  store ptr %36, ptr %5, align 8
  store i32 1, ptr %16, align 4
  br label %133

37:                                               ; preds = %28
  %38 = load ptr, ptr %6, align 8
  %39 = load ptr, ptr %7, align 8
  %40 = call noalias ptr @wmem_strdup(ptr noundef %38, ptr noundef %39)
  store ptr %40, ptr %10, align 8
  %41 = load ptr, ptr %8, align 8
  %42 = call i64 @strlen(ptr noundef %41) #16
  %43 = trunc i64 %42 to i32
  store i32 %43, ptr %13, align 4
  %44 = load i32, ptr %9, align 4
  %45 = icmp slt i32 %44, 1
  br i1 %45, label %46, label %47

46:                                               ; preds = %37
  store i32 2147483647, ptr %9, align 4
  br label %47

47:                                               ; preds = %46, %37
  %48 = load ptr, ptr %10, align 8
  store ptr %48, ptr %11, align 8
  store i32 1, ptr %12, align 4
  br label %49

49:                                               ; preds = %60, %47
  %50 = load i32, ptr %12, align 4
  %51 = load i32, ptr %9, align 4
  %52 = icmp ult i32 %50, %51
  br i1 %52, label %53, label %58

53:                                               ; preds = %49
  %54 = load ptr, ptr %11, align 8
  %55 = load ptr, ptr %8, align 8
  %56 = call ptr @strstr(ptr noundef %54, ptr noundef %55) #16
  store ptr %56, ptr %11, align 8
  %57 = icmp ne ptr %56, null
  br label %58

58:                                               ; preds = %53, %49
  %59 = phi i1 [ false, %49 ], [ %57, %53 ]
  br i1 %59, label %60, label %67

60:                                               ; preds = %58
  %61 = load i32, ptr %13, align 4
  %62 = load ptr, ptr %11, align 8
  %63 = zext i32 %61 to i64
  %64 = getelementptr i8, ptr %62, i64 %63
  store ptr %64, ptr %11, align 8
  %65 = load i32, ptr %12, align 4
  %66 = add i32 %65, 1
  store i32 %66, ptr %12, align 4
  br label %49, !llvm.loop !13

67:                                               ; preds = %58
  %68 = load ptr, ptr %6, align 8
  %69 = load i32, ptr %12, align 4
  %70 = add i32 %69, 1
  %71 = icmp ule i32 %70, 0
  br i1 %71, label %78, label %72

72:                                               ; preds = %67
  %73 = load i32, ptr %12, align 4
  %74 = add i32 %73, 1
  %75 = zext i32 %74 to i64
  %76 = udiv i64 9223372036854775807, %75
  %77 = icmp ugt i64 8, %76
  br i1 %77, label %78, label %79

78:                                               ; preds = %72, %67
  br label %84

79:                                               ; preds = %72
  %80 = load i32, ptr %12, align 4
  %81 = add i32 %80, 1
  %82 = zext i32 %81 to i64
  %83 = mul i64 8, %82
  br label %84

84:                                               ; preds = %79, %78
  %85 = phi i64 [ 0, %78 ], [ %83, %79 ]
  %86 = call noalias ptr @wmem_alloc(ptr noundef %68, i64 noundef %85) #17
  store ptr %86, ptr %15, align 8
  %87 = load ptr, ptr %10, align 8
  store ptr %87, ptr %11, align 8
  %88 = load ptr, ptr %11, align 8
  %89 = load ptr, ptr %15, align 8
  %90 = getelementptr ptr, ptr %89, i64 0
  store ptr %88, ptr %90, align 8
  store i32 1, ptr %12, align 4
  br label %91

91:                                               ; preds = %115, %84
  %92 = load i32, ptr %12, align 4
  %93 = load i32, ptr %9, align 4
  %94 = icmp ult i32 %92, %93
  br i1 %94, label %95, label %100

95:                                               ; preds = %91
  %96 = load ptr, ptr %11, align 8
  %97 = load ptr, ptr %8, align 8
  %98 = call ptr @strstr(ptr noundef %96, ptr noundef %97) #16
  store ptr %98, ptr %11, align 8
  %99 = icmp ne ptr %98, null
  br label %100

100:                                              ; preds = %95, %91
  %101 = phi i1 [ false, %91 ], [ %99, %95 ]
  br i1 %101, label %102, label %127

102:                                              ; preds = %100
  store i32 0, ptr %14, align 4
  br label %103

103:                                              ; preds = %112, %102
  %104 = load i32, ptr %14, align 4
  %105 = load i32, ptr %13, align 4
  %106 = icmp ult i32 %104, %105
  br i1 %106, label %107, label %115

107:                                              ; preds = %103
  %108 = load ptr, ptr %11, align 8
  %109 = load i32, ptr %14, align 4
  %110 = zext i32 %109 to i64
  %111 = getelementptr i8, ptr %108, i64 %110
  store i8 0, ptr %111, align 1
  br label %112

112:                                              ; preds = %107
  %113 = load i32, ptr %14, align 4
  %114 = add i32 %113, 1
  store i32 %114, ptr %14, align 4
  br label %103, !llvm.loop !14

115:                                              ; preds = %103
  %116 = load i32, ptr %13, align 4
  %117 = load ptr, ptr %11, align 8
  %118 = zext i32 %116 to i64
  %119 = getelementptr i8, ptr %117, i64 %118
  store ptr %119, ptr %11, align 8
  %120 = load ptr, ptr %11, align 8
  %121 = load ptr, ptr %15, align 8
  %122 = load i32, ptr %12, align 4
  %123 = zext i32 %122 to i64
  %124 = getelementptr ptr, ptr %121, i64 %123
  store ptr %120, ptr %124, align 8
  %125 = load i32, ptr %12, align 4
  %126 = add i32 %125, 1
  store i32 %126, ptr %12, align 4
  br label %91, !llvm.loop !15

127:                                              ; preds = %100
  %128 = load ptr, ptr %15, align 8
  %129 = load i32, ptr %12, align 4
  %130 = zext i32 %129 to i64
  %131 = getelementptr ptr, ptr %128, i64 %130
  store ptr null, ptr %131, align 8
  %132 = load ptr, ptr %15, align 8
  store ptr %132, ptr %5, align 8
  store i32 1, ptr %16, align 4
  br label %133

133:                                              ; preds = %127, %33, %27
  call void @llvm.lifetime.end.p0(i64 8, ptr %15) #15
  call void @llvm.lifetime.end.p0(i64 4, ptr %14) #15
  call void @llvm.lifetime.end.p0(i64 4, ptr %13) #15
  call void @llvm.lifetime.end.p0(i64 4, ptr %12) #15
  call void @llvm.lifetime.end.p0(i64 8, ptr %11) #15
  call void @llvm.lifetime.end.p0(i64 8, ptr %10) #15
  %134 = load ptr, ptr %5, align 8
  ret ptr %134
}