; Function Attrs: null_pointer_is_valid sspstrong uwtable
define noalias ptr @wmem_strsplit(ptr noundef %0, ptr noundef %1, ptr noundef readonly captures(address_is_null) %2, i32 noundef %3) local_unnamed_addr #0 {
  %5 = icmp ne ptr %1, null
  %6 = icmp ne ptr %2, null
  %or.cond = and i1 %5, %6
  br i1 %or.cond, label %7, label %43

7:                                                ; preds = %4
  %8 = load i8, ptr %2, align 1
  %.not = icmp eq i8 %8, 0
  br i1 %.not, label %43, label %9

9:                                                ; preds = %7
  %10 = load i8, ptr %1, align 1
  %.not56 = icmp eq i8 %10, 0
  br i1 %.not56, label %11, label %13

11:                                               ; preds = %9
  %12 = tail call noalias dereferenceable_or_null(8) ptr @wmem_alloc0(ptr noundef %0, i64 noundef 8) #25
  br label %43

13:                                               ; preds = %9
  %14 = tail call noalias ptr @wmem_strdup(ptr noundef %0, ptr noundef nonnull %1)
  %15 = tail call i64 @strlen(ptr noundef nonnull dereferenceable(1) %2) #24
  %.fr = freeze i64 %15
  %16 = icmp slt i32 %3, 1
  %spec.store.select = select i1 %16, i32 2147483647, i32 %3
  %17 = icmp samesign ugt i32 %spec.store.select, 1
  br i1 %17, label %.lr.ph, label %.critedge.thread

.critedge.thread:                                 ; preds = %13
  %18 = tail call noalias dereferenceable_or_null(16) ptr @wmem_alloc(ptr noundef %0, i64 noundef 16) #25
  store ptr %14, ptr %18, align 8
  br label %.critedge3

.lr.ph:                                           ; preds = %13
  %19 = and i64 %.fr, 4294967295
  br label %20

20:                                               ; preds = %.lr.ph, %22
  %.04760 = phi i32 [ 1, %.lr.ph ], [ %24, %22 ]
  %.04859 = phi ptr [ %14, %.lr.ph ], [ %23, %22 ]
  %21 = tail call ptr @strstr(ptr noundef %.04859, ptr noundef nonnull dereferenceable(1) %2) #24
  %.not57 = icmp eq ptr %21, null
  br i1 %.not57, label %.critedge, label %22

22:                                               ; preds = %20
  %23 = getelementptr i8, ptr %21, i64 %19
  %24 = add nuw nsw i32 %.04760, 1
  %exitcond.not = icmp eq i32 %24, %spec.store.select
  br i1 %exitcond.not, label %.critedge, label %20, !llvm.loop !13

.critedge:                                        ; preds = %20, %22
  %.047.lcssa.ph = phi i32 [ %.04760, %20 ], [ %spec.store.select, %22 ]
  %25 = add i32 %.047.lcssa.ph, 1
  %26 = zext i32 %25 to i64
  %27 = shl nuw nsw i64 %26, 3
  %28 = tail call noalias ptr @wmem_alloc(ptr noundef %0, i64 noundef %27) #25
  store ptr %14, ptr %28, align 8
  %29 = and i64 %.fr, 4294967295
  %.not73 = icmp eq i64 %29, 0
  %30 = and i64 %.fr, 4294967295
  br i1 %.not73, label %.lr.ph67.split.preheader, label %.lr.ph67.split.us.preheader

.lr.ph67.split.us.preheader:                      ; preds = %.critedge
  %31 = and i64 %.fr, 4294967295
  %wide.trip.count = zext nneg i32 %spec.store.select to i64
  br label %.lr.ph67.split.us

.lr.ph67.split.preheader:                         ; preds = %.critedge
  %wide.trip.count82 = zext nneg i32 %spec.store.select to i64
  br label %.lr.ph67.split

.lr.ph67.split.us:                                ; preds = %.lr.ph67.split.us.preheader, %.preheader.us.preheader
  %indvars.iv = phi i64 [ 1, %.lr.ph67.split.us.preheader ], [ %indvars.iv.next, %.preheader.us.preheader ]
  %.14965.us = phi ptr [ %14, %.lr.ph67.split.us.preheader ], [ %33, %.preheader.us.preheader ]
  %32 = tail call ptr @strstr(ptr noundef %.14965.us, ptr noundef nonnull dereferenceable(1) %2) #24
  %.not58.us = icmp eq ptr %32, null
  br i1 %.not58.us, label %.critedge3.loopexit85.split.loop.exit87, label %.preheader.us.preheader

.preheader.us.preheader:                          ; preds = %.lr.ph67.split.us
  tail call void @llvm.memset.p0.i64(ptr nonnull align 1 %32, i8 0, i64 %31, i1 false)
  %33 = getelementptr i8, ptr %32, i64 %30
  %34 = getelementptr ptr, ptr %28, i64 %indvars.iv
  store ptr %33, ptr %34, align 8
  %indvars.iv.next = add nuw nsw i64 %indvars.iv, 1
  %exitcond78.not = icmp eq i64 %indvars.iv.next, %wide.trip.count
  br i1 %exitcond78.not, label %.critedge3, label %.lr.ph67.split.us, !llvm.loop !14

.lr.ph67.split:                                   ; preds = %.lr.ph67.split.preheader, %.preheader
  %indvars.iv79 = phi i64 [ 1, %.lr.ph67.split.preheader ], [ %indvars.iv.next80, %.preheader ]
  %.14965 = phi ptr [ %14, %.lr.ph67.split.preheader ], [ %36, %.preheader ]
  %35 = tail call ptr @strstr(ptr noundef %.14965, ptr noundef nonnull dereferenceable(1) %2) #24
  %.not58 = icmp eq ptr %35, null
  br i1 %.not58, label %.critedge3.loopexit.split.loop.exit89, label %.preheader

.preheader:                                       ; preds = %.lr.ph67.split
  %36 = getelementptr i8, ptr %35, i64 %30
  %37 = getelementptr ptr, ptr %28, i64 %indvars.iv79
  store ptr %36, ptr %37, align 8
  %indvars.iv.next80 = add nuw nsw i64 %indvars.iv79, 1
  %exitcond83.not = icmp eq i64 %indvars.iv.next80, %wide.trip.count82
  br i1 %exitcond83.not, label %.critedge3, label %.lr.ph67.split, !llvm.loop !14

.critedge3.loopexit.split.loop.exit89:            ; preds = %.lr.ph67.split
  %38 = trunc nuw nsw i64 %indvars.iv79 to i32
  br label %.critedge3

.critedge3.loopexit85.split.loop.exit87:          ; preds = %.lr.ph67.split.us
  %39 = trunc nuw nsw i64 %indvars.iv to i32
  br label %.critedge3

.critedge3:                                       ; preds = %.preheader.us.preheader, %.preheader, %.critedge3.loopexit85.split.loop.exit87, %.critedge3.loopexit.split.loop.exit89, %.critedge.thread
  %40 = phi ptr [ %18, %.critedge.thread ], [ %28, %.critedge3.loopexit.split.loop.exit89 ], [ %28, %.critedge3.loopexit85.split.loop.exit87 ], [ %28, %.preheader ], [ %28, %.preheader.us.preheader ]
  %.1.lcssa = phi i32 [ 1, %.critedge.thread ], [ %38, %.critedge3.loopexit.split.loop.exit89 ], [ %39, %.critedge3.loopexit85.split.loop.exit87 ], [ %spec.store.select, %.preheader ], [ %spec.store.select, %.preheader.us.preheader ]
  %41 = zext i32 %.1.lcssa to i64
  %42 = getelementptr ptr, ptr %40, i64 %41
  store ptr null, ptr %42, align 8
  br label %43

43:                                               ; preds = %4, %7, %.critedge3, %11
  %.046 = phi ptr [ %40, %.critedge3 ], [ %12, %11 ], [ null, %7 ], [ null, %4 ]
  ret ptr %.046
}